; Function Attrs: nounwind uwtable
define ptr @l_Std_Time_Internal_UnitVal_mul___rarg___boxed(ptr noundef %0, ptr noundef %1) #1 {
  %3 = ptrtoint ptr %0 to i64
  %4 = and i64 %3, 1
  %.not.i.i = icmp eq i64 %4, 0
  %.pre11 = ptrtoint ptr %1 to i64
  %.pre = and i64 %.pre11, 1
  %5 = icmp eq i64 %.pre, 0
  br i1 %.not.i.i, label %l_Std_Time_Internal_UnitVal_mul___rarg.exit, label %6, !prof !15

6:                                                ; preds = %2
  br i1 %5, label %l_Std_Time_Internal_UnitVal_mul___rarg.exit.thread15, label %8, !prof !15

l_Std_Time_Internal_UnitVal_mul___rarg.exit.thread15: ; preds = %6
  %7 = tail call ptr @lean_int_big_mul(ptr noundef %0, ptr noundef %1) #5
  br label %24

8:                                                ; preds = %6
  %9 = shl i64 %3, 31
  %10 = ashr i64 %9, 32
  %11 = shl i64 %.pre11, 31
  %12 = ashr i64 %11, 32
  %13 = mul nsw i64 %12, %10
  %14 = add nsw i64 %13, 2147483648
  %15 = icmp ult i64 %14, 4294967296
  br i1 %15, label %16, label %21, !prof !11

16:                                               ; preds = %8
  %17 = shl nsw i64 %13, 1
  %18 = and i64 %17, 8589934590
  %19 = or disjoint i64 %18, 1
  %20 = inttoptr i64 %19 to ptr
  br label %lean_dec.exit

21:                                               ; preds = %8
  %22 = tail call ptr @lean_big_int64_to_int(i64 noundef range(i64 -4611686016279904256, 4611686018427387905) %13) #5
  br label %lean_dec.exit

l_Std_Time_Internal_UnitVal_mul___rarg.exit:      ; preds = %2
  %23 = tail call ptr @lean_int_big_mul(ptr noundef %0, ptr noundef %1) #5
  br i1 %5, label %24, label %lean_dec.exit5.thread

24:                                               ; preds = %l_Std_Time_Internal_UnitVal_mul___rarg.exit.thread15, %l_Std_Time_Internal_UnitVal_mul___rarg.exit
  %25 = phi ptr [ %7, %l_Std_Time_Internal_UnitVal_mul___rarg.exit.thread15 ], [ %23, %l_Std_Time_Internal_UnitVal_mul___rarg.exit ]
  %26 = load i32, ptr %1, align 4, !tbaa !8
  %27 = icmp sgt i32 %26, 1
  br i1 %27, label %28, label %30, !prof !11

28:                                               ; preds = %24
  %29 = add nsw i32 %26, -1
  store i32 %29, ptr %1, align 4, !tbaa !8
  br label %lean_dec.exit5

30:                                               ; preds = %24
  %.not.i = icmp eq i32 %26, 0
  br i1 %.not.i, label %lean_dec.exit5, label %31

31:                                               ; preds = %30
  tail call void @lean_dec_ref_cold(ptr noundef nonnull %1) #5
  br label %lean_dec.exit5

lean_dec.exit5:                                   ; preds = %31, %30, %28
  br i1 %.not.i.i, label %lean_dec.exit5.thread, label %lean_dec.exit

lean_dec.exit5.thread:                            ; preds = %l_Std_Time_Internal_UnitVal_mul___rarg.exit, %lean_dec.exit5
  %.0.i.i1419 = phi ptr [ %25, %lean_dec.exit5 ], [ %23, %l_Std_Time_Internal_UnitVal_mul___rarg.exit ]
  %32 = load i32, ptr %0, align 4, !tbaa !8
  %33 = icmp sgt i32 %32, 1
  br i1 %33, label %34, label %36, !prof !11

34:                                               ; preds = %lean_dec.exit5.thread
  %35 = add nsw i32 %32, -1
  store i32 %35, ptr %0, align 4, !tbaa !8
  br label %lean_dec.exit

36:                                               ; preds = %lean_dec.exit5.thread
  %.not.i6 = icmp eq i32 %32, 0
  br i1 %.not.i6, label %lean_dec.exit, label %37

37:                                               ; preds = %36
  tail call void @lean_dec_ref_cold(ptr noundef nonnull %0) #5
  br label %lean_dec.exit

lean_dec.exit:                                    ; preds = %16, %21, %37, %36, %34, %lean_dec.exit5
  %.0.i.i1418 = phi ptr [ %.0.i.i1419, %37 ], [ %.0.i.i1419, %36 ], [ %.0.i.i1419, %34 ], [ %25, %lean_dec.exit5 ], [ %22, %21 ], [ %20, %16 ]
  ret ptr %.0.i.i1418
}